target datalayout = "e-m:e-p270:32:32-p271:32:32-p272:64:64-i64:64-i128:128-f80:128-n8:16:32:64-S128"
target triple = "x86_64-pc-linux-gnu"

%struct.gmx_parallel_3dfft = type { ptr, ptr }
%struct.fft5d_plan_t = type { ptr, ptr, ptr, ptr, [3 x ptr], ptr, [2 x ptr], [3 x i32], [3 x i32], [3 x i32], [3 x i32], [3 x i32], [3 x i32], [3 x i32], [3 x i32], [3 x ptr], [3 x ptr], [3 x ptr], [3 x ptr], [3 x i32], [3 x i32], [2 x i32], i32, i32, i32, i32, [2 x i32], i32, i32 }
%"class.std::filesystem::__cxx11::path" = type { %"class.std::__cxx11::basic_string", %"struct.std::filesystem::__cxx11::path::_List" }
%"class.std::__cxx11::basic_string" = type { %"struct.std::__cxx11::basic_string<char>::_Alloc_hider", i64, %union.anon }
%"struct.std::__cxx11::basic_string<char>::_Alloc_hider" = type { ptr }
%union.anon = type { i64, [8 x i8] }
%"struct.std::filesystem::__cxx11::path::_List" = type { %"class.std::unique_ptr" }
%"class.std::unique_ptr" = type { %"struct.std::__uniq_ptr_data" }
%"struct.std::__uniq_ptr_data" = type { %"class.std::__uniq_ptr_impl" }
%"class.std::__uniq_ptr_impl" = type { %"class.std::tuple" }
%"class.std::tuple" = type { %"struct.std::_Tuple_impl" }
%"struct.std::_Tuple_impl" = type { %"struct.std::_Head_base.1" }
%"struct.std::_Head_base.1" = type { ptr }

@.str.1 = private unnamed_addr constant [128 x i8] c"generated/home/dtcxzyw/WorkSpace/Projects/compilers/llvm-opt-benchmark/bench/gromacs/gromacs/src/gromacs/fft/parallel_3dfft.cpp\00", align 1
@.str.2 = private unnamed_addr constant [73 x i8] c"Invalid transform. Plan and execution don't match regarding reel/complex\00", align 1

; Function Attrs: mustprogress uwtable
define noundef i32 @_Z26gmx_parallel_3dfft_executeP18gmx_parallel_3dfft17gmx_fft_directioniP13gmx_wallcycle(ptr noundef %0, i32 noundef %1, i32 noundef %2, ptr noundef %3) #0 personality ptr @__gxx_personality_v0 {
  %5 = alloca ptr, align 8
  %6 = alloca i32, align 4
  %7 = alloca i32, align 4
  %8 = alloca ptr, align 8
  %9 = alloca %"class.std::filesystem::__cxx11::path", align 8
  %10 = alloca ptr, align 8
  %11 = alloca i32, align 4
  store ptr %0, ptr %5, align 8, !tbaa !28
  store i32 %1, ptr %6, align 4, !tbaa !43
  store i32 %2, ptr %7, align 4, !tbaa !20
  store ptr %3, ptr %8, align 8, !tbaa !45
  %12 = load ptr, ptr %5, align 8, !tbaa !28
  %13 = getelementptr inbounds nuw %struct.gmx_parallel_3dfft, ptr %12, i32 0, i32 0
  %14 = load ptr, ptr %13, align 8, !tbaa !30
  %15 = getelementptr inbounds nuw %struct.fft5d_plan_t, ptr %14, i32 0, i32 22
  %16 = load i32, ptr %15, align 8, !tbaa !39
  %17 = and i32 %16, 4
  %18 = icmp eq i32 %17, 0
  %19 = zext i1 %18 to i32
  %20 = load i32, ptr %6, align 4, !tbaa !43
  %21 = icmp eq i32 %20, 0
  br i1 %21, label %25, label %22

22:                                               ; preds = %4
  %23 = load i32, ptr %6, align 4, !tbaa !43
  %24 = icmp eq i32 %23, 1
  br label %25

25:                                               ; preds = %22, %4
  %26 = phi i1 [ true, %4 ], [ %24, %22 ]
  %27 = zext i1 %26 to i32
  %28 = xor i32 %19, %27
  %29 = icmp ne i32 %28, 0
  br i1 %29, label %30, label %36

30:                                               ; preds = %25
  call void @llvm.lifetime.start.p0(i64 40, ptr %9) #12
  call void @_ZNSt10filesystem7__cxx114pathC2IA128_cS1_EERKT_NS1_6formatE(ptr noundef nonnull align 8 dereferenceable(40) %9, ptr noundef nonnull align 1 dereferenceable(128) @.str.1, i8 noundef zeroext 2)
  invoke void (i32, ptr, i32, ptr, ...) @_Z9gmx_fataliRKNSt10filesystem7__cxx114pathEiPKcz(i32 noundef 0, ptr noundef nonnull align 8 dereferenceable(40) %9, i32 noundef 178, ptr noundef @.str.2) #13
          to label %31 unwind label %32

31:                                               ; preds = %30
  unreachable

32:                                               ; preds = %30
  %33 = landingpad { ptr, i32 }
          cleanup
  %34 = extractvalue { ptr, i32 } %33, 0
  store ptr %34, ptr %10, align 8
  %35 = extractvalue { ptr, i32 } %33, 1
  store i32 %35, ptr %11, align 4
  call void @_ZNSt10filesystem7__cxx114pathD2Ev(ptr noundef nonnull align 8 dereferenceable(40) %9) #12
  call void @llvm.lifetime.end.p0(i64 40, ptr %9) #12
  br label %55

36:                                               ; preds = %25
  %37 = load i32, ptr %6, align 4, !tbaa !43
  %38 = icmp eq i32 %37, 0
  br i1 %38, label %42, label %39

39:                                               ; preds = %36
  %40 = load i32, ptr %6, align 4, !tbaa !43
  %41 = icmp eq i32 %40, 2
  br i1 %41, label %42, label %48

42:                                               ; preds = %39, %36
  %43 = load ptr, ptr %5, align 8, !tbaa !28
  %44 = getelementptr inbounds nuw %struct.gmx_parallel_3dfft, ptr %43, i32 0, i32 0
  %45 = load ptr, ptr %44, align 8, !tbaa !30
  %46 = load i32, ptr %7, align 4, !tbaa !20
  %47 = load ptr, ptr %8, align 8, !tbaa !45
  call void @_Z13fft5d_executeP12fft5d_plan_tiP13gmx_wallcycle(ptr noundef %45, i32 noundef %46, ptr noundef %47)
  br label %54

48:                                               ; preds = %39
  %49 = load ptr, ptr %5, align 8, !tbaa !28
  %50 = getelementptr inbounds nuw %struct.gmx_parallel_3dfft, ptr %49, i32 0, i32 1
  %51 = load ptr, ptr %50, align 8, !tbaa !33
  %52 = load i32, ptr %7, align 4, !tbaa !20
  %53 = load ptr, ptr %8, align 8, !tbaa !45
  call void @_Z13fft5d_executeP12fft5d_plan_tiP13gmx_wallcycle(ptr noundef %51, i32 noundef %52, ptr noundef %53)
  br label %54

54:                                               ; preds = %48, %42
  ret i32 0

55:                                               ; preds = %32
  %56 = load ptr, ptr %10, align 8
  %57 = load i32, ptr %11, align 4
  %58 = insertvalue { ptr, i32 } poison, ptr %56, 0
  %59 = insertvalue { ptr, i32 } %58, i32 %57, 1
  resume { ptr, i32 } %59
}