; Function Attrs: mustprogress uwtable
define noundef i32 @_Z26gmx_parallel_3dfft_executeP18gmx_parallel_3dfft17gmx_fft_directioniP13gmx_wallcycle(ptr noundef readonly captures(none) %0, i32 noundef %1, i32 noundef %2, ptr noundef %3) local_unnamed_addr #0 personality ptr @__gxx_personality_v0 {
  %5 = alloca %"class.std::filesystem::__cxx11::path", align 8
  %6 = load ptr, ptr %0, align 8, !tbaa !13
  %7 = getelementptr inbounds nuw i8, ptr %6, i64 304
  %8 = load i32, ptr %7, align 8, !tbaa !17
  %9 = icmp ult i32 %1, 2
  %10 = and i32 %8, 4
  %11 = icmp eq i32 %10, 0
  %.not.not = xor i1 %9, %11
  br i1 %.not.not, label %12, label %16

12:                                               ; preds = %4
  call void @llvm.lifetime.start.p0(i64 40, ptr nonnull %5) #11
  call void @_ZNSt10filesystem7__cxx114pathC2IA128_cS1_EERKT_NS1_6formatE(ptr noundef nonnull align 8 dereferenceable(40) %5, ptr noundef nonnull align 1 dereferenceable(128) @.str.1, i8 noundef zeroext 2)
  invoke void (i32, ptr, i32, ptr, ...) @_Z9gmx_fataliRKNSt10filesystem7__cxx114pathEiPKcz(i32 noundef 0, ptr noundef nonnull align 8 dereferenceable(40) %5, i32 noundef 178, ptr noundef nonnull @.str.2) #12
          to label %13 unwind label %14

13:                                               ; preds = %12
  unreachable

14:                                               ; preds = %12
  %15 = landingpad { ptr, i32 }
          cleanup
  call void @_ZNSt10filesystem7__cxx114pathD2Ev(ptr noundef nonnull align 8 dereferenceable(40) %5) #11
  call void @llvm.lifetime.end.p0(i64 40, ptr nonnull %5) #11
  resume { ptr, i32 } %15

16:                                               ; preds = %4
  %17 = and i32 %1, -3
  %or.cond = icmp eq i32 %17, 0
  br i1 %or.cond, label %21, label %18

18:                                               ; preds = %16
  %19 = getelementptr inbounds nuw i8, ptr %0, i64 8
  %20 = load ptr, ptr %19, align 8, !tbaa !16
  br label %21

21:                                               ; preds = %16, %18
  %.sink = phi ptr [ %20, %18 ], [ %6, %16 ]
  tail call void @_Z13fft5d_executeP12fft5d_plan_tiP13gmx_wallcycle(ptr noundef %.sink, i32 noundef %2, ptr noundef %3)
  ret i32 0
}